target datalayout = "e-m:e-p270:32:32-p271:32:32-p272:64:64-i64:64-i128:128-f80:128-n8:16:32:64-S128"
target triple = "x86_64-pc-linux-gnu"

%"class.duckdb::ColumnWriter.base" = type <{ ptr, ptr, i64, %"class.duckdb::vector.15", i64, i64, i8 }>
%"class.duckdb::vector.15" = type { %"class.std::vector.16" }
%"class.std::vector.16" = type { %"struct.std::_Vector_base.17" }
%"struct.std::_Vector_base.17" = type { %"struct.std::_Vector_base<std::__cxx11::basic_string<char>, std::allocator<std::__cxx11::basic_string<char>>>::_Vector_impl" }
%"struct.std::_Vector_base<std::__cxx11::basic_string<char>, std::allocator<std::__cxx11::basic_string<char>>>::_Vector_impl" = type { %"struct.std::_Vector_base<std::__cxx11::basic_string<char>, std::allocator<std::__cxx11::basic_string<char>>>::_Vector_impl_data" }
%"struct.std::_Vector_base<std::__cxx11::basic_string<char>, std::allocator<std::__cxx11::basic_string<char>>>::_Vector_impl_data" = type { ptr, ptr, ptr }
%"class.duckdb::ColumnWriterState" = type { ptr, %"class.duckdb::vector", %"class.duckdb::vector", %"class.duckdb::vector.0", i64, i64 }
%"class.duckdb::vector" = type { %"class.std::vector" }
%"class.std::vector" = type { %"struct.std::_Vector_base" }
%"struct.std::_Vector_base" = type { %"struct.std::_Vector_base<unsigned short, std::allocator<unsigned short>>::_Vector_impl" }
%"struct.std::_Vector_base<unsigned short, std::allocator<unsigned short>>::_Vector_impl" = type { %"struct.std::_Vector_base<unsigned short, std::allocator<unsigned short>>::_Vector_impl_data" }
%"struct.std::_Vector_base<unsigned short, std::allocator<unsigned short>>::_Vector_impl_data" = type { ptr, ptr, ptr }
%"class.duckdb::vector.0" = type { %"class.std::vector.1" }
%"class.std::vector.1" = type { %"struct.std::_Bvector_base" }
%"struct.std::_Bvector_base" = type { %"struct.std::_Bvector_base<std::allocator<bool>>::_Bvector_impl" }
%"struct.std::_Bvector_base<std::allocator<bool>>::_Bvector_impl" = type { %"struct.std::_Bvector_base<std::allocator<bool>>::_Bvector_impl_data" }
%"struct.std::_Bvector_base<std::allocator<bool>>::_Bvector_impl_data" = type { %"struct.std::_Bit_iterator", %"struct.std::_Bit_iterator", ptr }
%"struct.std::_Bit_iterator" = type { %"struct.std::_Bit_iterator_base.base", [4 x i8] }
%"struct.std::_Bit_iterator_base.base" = type <{ ptr, i32 }>
%"class.duckdb::vector.137" = type { %"class.std::vector.138" }
%"class.std::vector.138" = type { %"struct.std::_Vector_base.139" }
%"struct.std::_Vector_base.139" = type { %"struct.std::_Vector_base<duckdb::unique_ptr<duckdb::ColumnWriter>, std::allocator<duckdb::unique_ptr<duckdb::ColumnWriter>>>::_Vector_impl" }
%"struct.std::_Vector_base<duckdb::unique_ptr<duckdb::ColumnWriter>, std::allocator<duckdb::unique_ptr<duckdb::ColumnWriter>>>::_Vector_impl" = type { %"struct.std::_Vector_base<duckdb::unique_ptr<duckdb::ColumnWriter>, std::allocator<duckdb::unique_ptr<duckdb::ColumnWriter>>>::_Vector_impl_data" }
%"struct.std::_Vector_base<duckdb::unique_ptr<duckdb::ColumnWriter>, std::allocator<duckdb::unique_ptr<duckdb::ColumnWriter>>>::_Vector_impl_data" = type { ptr, ptr, ptr }
%"class.duckdb::StructColumnWriterState" = type { %"class.duckdb::ColumnWriterState", ptr, i64, %"class.duckdb::vector.371" }
%"class.duckdb::vector.371" = type { %"class.std::vector.372" }
%"class.std::vector.372" = type { %"struct.std::_Vector_base.373" }
%"struct.std::_Vector_base.373" = type { %"struct.std::_Vector_base<duckdb::unique_ptr<duckdb::ColumnWriterState>, std::allocator<duckdb::unique_ptr<duckdb::ColumnWriterState>>>::_Vector_impl" }
%"struct.std::_Vector_base<duckdb::unique_ptr<duckdb::ColumnWriterState>, std::allocator<duckdb::unique_ptr<duckdb::ColumnWriterState>>>::_Vector_impl" = type { %"struct.std::_Vector_base<duckdb::unique_ptr<duckdb::ColumnWriterState>, std::allocator<duckdb::unique_ptr<duckdb::ColumnWriterState>>>::_Vector_impl_data" }
%"struct.std::_Vector_base<duckdb::unique_ptr<duckdb::ColumnWriterState>, std::allocator<duckdb::unique_ptr<duckdb::ColumnWriterState>>>::_Vector_impl_data" = type { ptr, ptr, ptr }
%"class.duckdb::StructColumnWriter" = type { %"class.duckdb::ColumnWriter.base", %"class.duckdb::vector.137" }

; Function Attrs: mustprogress nounwind uwtable
define linkonce_odr void @_ZN6duckdb16DynamicCastCheckINS_23StructColumnWriterStateENS_17ColumnWriterStateEEEvPKT0_(ptr noundef %0) #5 comdat {
  %2 = alloca ptr, align 8
  store ptr %0, ptr %2, align 8, !tbaa !8
  ret void
}

; Function Attrs: mustprogress nounwind uwtable
define linkonce_odr noundef i64 @_ZNKSt6vectorIN6duckdb10unique_ptrINS0_12ColumnWriterESt14default_deleteIS2_ELb1EEESaIS5_EE4sizeEv(ptr noundef nonnull align 8 dereferenceable(24) %0) #5 comdat align 2 {
  %2 = alloca ptr, align 8
  store ptr %0, ptr %2, align 8, !tbaa !618
  %3 = load ptr, ptr %2, align 8
  %4 = getelementptr inbounds nuw %"struct.std::_Vector_base.139", ptr %3, i32 0, i32 0
  %5 = getelementptr inbounds nuw %"struct.std::_Vector_base<duckdb::unique_ptr<duckdb::ColumnWriter>, std::allocator<duckdb::unique_ptr<duckdb::ColumnWriter>>>::_Vector_impl_data", ptr %4, i32 0, i32 1
  %6 = load ptr, ptr %5, align 8, !tbaa !620
  %7 = getelementptr inbounds nuw %"struct.std::_Vector_base.139", ptr %3, i32 0, i32 0
  %8 = getelementptr inbounds nuw %"struct.std::_Vector_base<duckdb::unique_ptr<duckdb::ColumnWriter>, std::allocator<duckdb::unique_ptr<duckdb::ColumnWriter>>>::_Vector_impl_data", ptr %7, i32 0, i32 0
  %9 = load ptr, ptr %8, align 8, !tbaa !621
  %10 = ptrtoint ptr %6 to i64
  %11 = ptrtoint ptr %9 to i64
  %12 = sub i64 %10, %11
  %13 = sdiv exact i64 %12, 8
  ret i64 %13
}

; Function Attrs: mustprogress uwtable
define linkonce_odr noundef nonnull align 8 dereferenceable(152) ptr @_ZN6duckdb17ColumnWriterState4CastINS_23StructColumnWriterStateEEERT_v(ptr noundef nonnull align 8 dereferenceable(112) %0) #0 comdat align 2 {
  %2 = alloca ptr, align 8
  store ptr %0, ptr %2, align 8, !tbaa !8
  %3 = load ptr, ptr %2, align 8
  call void @_ZN6duckdb16DynamicCastCheckINS_23StructColumnWriterStateENS_17ColumnWriterStateEEEvPKT0_(ptr noundef %3)
  ret ptr %3
}

; Function Attrs: mustprogress uwtable
define void @_ZN6duckdb18StructColumnWriter7AnalyzeERNS_17ColumnWriterStateEPS1_RNS_6VectorEm(ptr noundef nonnull align 8 dereferenceable(96) %0, ptr noundef nonnull align 8 dereferenceable(112) %1, ptr noundef %2, ptr noundef nonnull align 8 dereferenceable(104) %3, i64 noundef %4) unnamed_addr #0 align 2 {
  %6 = alloca ptr, align 8
  %7 = alloca ptr, align 8
  %8 = alloca ptr, align 8
  %9 = alloca ptr, align 8
  %10 = alloca i64, align 8
  %11 = alloca ptr, align 8
  %12 = alloca ptr, align 8
  %13 = alloca i64, align 8
  store ptr %0, ptr %6, align 8, !tbaa !604
  store ptr %1, ptr %7, align 8, !tbaa !8
  store ptr %2, ptr %8, align 8, !tbaa !8
  store ptr %3, ptr %9, align 8, !tbaa !10
  store i64 %4, ptr %10, align 8, !tbaa !12
  %14 = load ptr, ptr %6, align 8
  call void @llvm.lifetime.start.p0(i64 8, ptr %11) #19
  %15 = load ptr, ptr %7, align 8, !tbaa !8
  %16 = call noundef nonnull align 8 dereferenceable(152) ptr @_ZN6duckdb17ColumnWriterState4CastINS_23StructColumnWriterStateEEERT_v(ptr noundef nonnull align 8 dereferenceable(112) %15)
  store ptr %16, ptr %11, align 8, !tbaa !610
  call void @llvm.lifetime.start.p0(i64 8, ptr %12) #19
  %17 = load ptr, ptr %9, align 8, !tbaa !10
  %18 = call noundef nonnull align 8 dereferenceable(24) ptr @_ZN6duckdb12StructVector10GetEntriesERNS_6VectorE(ptr noundef nonnull align 8 dereferenceable(104) %17)
  store ptr %18, ptr %12, align 8, !tbaa !630
  call void @llvm.lifetime.start.p0(i64 8, ptr %13) #19
  store i64 0, ptr %13, align 8, !tbaa !12
  br label %19

19:                                               ; preds = %54, %5
  %20 = load i64, ptr %13, align 8, !tbaa !12
  %21 = getelementptr inbounds nuw %"class.duckdb::StructColumnWriter", ptr %14, i32 0, i32 1
  %22 = call noundef i64 @_ZNKSt6vectorIN6duckdb10unique_ptrINS0_12ColumnWriterESt14default_deleteIS2_ELb1EEESaIS5_EE4sizeEv(ptr noundef nonnull align 8 dereferenceable(24) %21) #19
  %23 = icmp ult i64 %20, %22
  br i1 %23, label %25, label %24

24:                                               ; preds = %19
  call void @llvm.lifetime.end.p0(i64 8, ptr %13) #19
  br label %57

25:                                               ; preds = %19
  %26 = getelementptr inbounds nuw %"class.duckdb::StructColumnWriter", ptr %14, i32 0, i32 1
  %27 = load i64, ptr %13, align 8, !tbaa !12
  %28 = call noundef nonnull align 8 dereferenceable(8) ptr @_ZN6duckdb6vectorINS_10unique_ptrINS_12ColumnWriterESt14default_deleteIS2_ELb1EEELb1EEixEm(ptr noundef nonnull align 8 dereferenceable(24) %26, i64 noundef %27)
  %29 = call noundef ptr @_ZNK6duckdb10unique_ptrINS_12ColumnWriterESt14default_deleteIS1_ELb1EEptEv(ptr noundef nonnull align 8 dereferenceable(8) %28)
  %30 = load ptr, ptr %29, align 8, !tbaa !16
  %31 = getelementptr inbounds ptr, ptr %30, i64 3
  %32 = load ptr, ptr %31, align 8
  %33 = call noundef zeroext i1 %32(ptr noundef nonnull align 8 dereferenceable(65) %29)
  br i1 %33, label %34, label %53

34:                                               ; preds = %25
  %35 = getelementptr inbounds nuw %"class.duckdb::StructColumnWriter", ptr %14, i32 0, i32 1
  %36 = load i64, ptr %13, align 8, !tbaa !12
  %37 = call noundef nonnull align 8 dereferenceable(8) ptr @_ZN6duckdb6vectorINS_10unique_ptrINS_12ColumnWriterESt14default_deleteIS2_ELb1EEELb1EEixEm(ptr noundef nonnull align 8 dereferenceable(24) %35, i64 noundef %36)
  %38 = call noundef ptr @_ZNK6duckdb10unique_ptrINS_12ColumnWriterESt14default_deleteIS1_ELb1EEptEv(ptr noundef nonnull align 8 dereferenceable(8) %37)
  %39 = load ptr, ptr %11, align 8, !tbaa !610
  %40 = getelementptr inbounds nuw %"class.duckdb::StructColumnWriterState", ptr %39, i32 0, i32 3
  %41 = load i64, ptr %13, align 8, !tbaa !12
  %42 = call noundef nonnull align 8 dereferenceable(8) ptr @_ZN6duckdb6vectorINS_10unique_ptrINS_17ColumnWriterStateESt14default_deleteIS2_ELb1EEELb1EEixEm(ptr noundef nonnull align 8 dereferenceable(24) %40, i64 noundef %41)
  %43 = call noundef nonnull align 8 dereferenceable(112) ptr @_ZNK6duckdb10unique_ptrINS_17ColumnWriterStateESt14default_deleteIS1_ELb1EEdeEv(ptr noundef nonnull align 8 dereferenceable(8) %42)
  %44 = load ptr, ptr %7, align 8, !tbaa !8
  %45 = load ptr, ptr %12, align 8, !tbaa !630
  %46 = load i64, ptr %13, align 8, !tbaa !12
  %47 = call noundef nonnull align 8 dereferenceable(8) ptr @_ZN6duckdb6vectorINS_10unique_ptrINS_6VectorESt14default_deleteIS2_ELb1EEELb1EEixEm(ptr noundef nonnull align 8 dereferenceable(24) %45, i64 noundef %46)
  %48 = call noundef nonnull align 8 dereferenceable(104) ptr @_ZNK6duckdb10unique_ptrINS_6VectorESt14default_deleteIS1_ELb1EEdeEv(ptr noundef nonnull align 8 dereferenceable(8) %47)
  %49 = load i64, ptr %10, align 8, !tbaa !12
  %50 = load ptr, ptr %38, align 8, !tbaa !16
  %51 = getelementptr inbounds ptr, ptr %50, i64 4
  %52 = load ptr, ptr %51, align 8
  call void %52(ptr noundef nonnull align 8 dereferenceable(65) %38, ptr noundef nonnull align 8 dereferenceable(112) %43, ptr noundef %44, ptr noundef nonnull align 8 dereferenceable(104) %48, i64 noundef %49)
  br label %53

53:                                               ; preds = %34, %25
  br label %54

54:                                               ; preds = %53
  %55 = load i64, ptr %13, align 8, !tbaa !12
  %56 = add i64 %55, 1
  store i64 %56, ptr %13, align 8, !tbaa !12
  br label %19, !llvm.loop !632

57:                                               ; preds = %24
  call void @llvm.lifetime.end.p0(i64 8, ptr %12) #19
  call void @llvm.lifetime.end.p0(i64 8, ptr %11) #19
  ret void
}