; Function Attrs: mustprogress uwtable
define void @_ZN6duckdb18StructColumnWriter7AnalyzeERNS_17ColumnWriterStateEPS1_RNS_6VectorEm(ptr noundef nonnull align 8 dereferenceable(96) %0, ptr noundef nonnull align 8 dereferenceable(112) %1, ptr readnone captures(none) %2, ptr noundef nonnull align 8 dereferenceable(104) %3, i64 noundef %4) unnamed_addr #0 align 2 {
  %6 = tail call noundef nonnull align 8 dereferenceable(24) ptr @_ZN6duckdb12StructVector10GetEntriesERNS_6VectorE(ptr noundef nonnull align 8 dereferenceable(104) %3)
  %7 = getelementptr inbounds nuw i8, ptr %0, i64 72
  %8 = getelementptr inbounds nuw i8, ptr %0, i64 80
  %9 = load ptr, ptr %8, align 8, !tbaa !517
  %10 = load ptr, ptr %7, align 8, !tbaa !518
  %.not = icmp eq ptr %9, %10
  br i1 %.not, label %._crit_edge, label %.lr.ph

.lr.ph:                                           ; preds = %5
  %11 = getelementptr inbounds nuw i8, ptr %1, i64 128
  br label %12

._crit_edge:                                      ; preds = %29, %5
  ret void

12:                                               ; preds = %.lr.ph, %29
  %.012 = phi i64 [ 0, %.lr.ph ], [ %30, %29 ]
  %13 = tail call noundef nonnull align 8 dereferenceable(8) ptr @_ZN6duckdb6vectorINS_10unique_ptrINS_12ColumnWriterESt14default_deleteIS2_ELb1EEELb1EEixEm(ptr noundef nonnull align 8 dereferenceable(24) %7, i64 noundef %.012)
  %14 = tail call noundef ptr @_ZNK6duckdb10unique_ptrINS_12ColumnWriterESt14default_deleteIS1_ELb1EEptEv(ptr noundef nonnull align 8 dereferenceable(8) %13)
  %15 = load ptr, ptr %14, align 8, !tbaa !3
  %16 = getelementptr inbounds nuw i8, ptr %15, i64 24
  %17 = load ptr, ptr %16, align 8
  %18 = tail call noundef zeroext i1 %17(ptr noundef nonnull align 8 dereferenceable(65) %14)
  br i1 %18, label %19, label %29

19:                                               ; preds = %12
  %20 = tail call noundef nonnull align 8 dereferenceable(8) ptr @_ZN6duckdb6vectorINS_10unique_ptrINS_12ColumnWriterESt14default_deleteIS2_ELb1EEELb1EEixEm(ptr noundef nonnull align 8 dereferenceable(24) %7, i64 noundef %.012)
  %21 = tail call noundef ptr @_ZNK6duckdb10unique_ptrINS_12ColumnWriterESt14default_deleteIS1_ELb1EEptEv(ptr noundef nonnull align 8 dereferenceable(8) %20)
  %22 = tail call noundef nonnull align 8 dereferenceable(8) ptr @_ZN6duckdb6vectorINS_10unique_ptrINS_17ColumnWriterStateESt14default_deleteIS2_ELb1EEELb1EEixEm(ptr noundef nonnull align 8 dereferenceable(24) %11, i64 noundef %.012)
  %23 = tail call noundef nonnull align 8 dereferenceable(112) ptr @_ZNK6duckdb10unique_ptrINS_17ColumnWriterStateESt14default_deleteIS1_ELb1EEdeEv(ptr noundef nonnull align 8 dereferenceable(8) %22)
  %24 = tail call noundef nonnull align 8 dereferenceable(8) ptr @_ZN6duckdb6vectorINS_10unique_ptrINS_6VectorESt14default_deleteIS2_ELb1EEELb1EEixEm(ptr noundef nonnull align 8 dereferenceable(24) %6, i64 noundef %.012)
  %25 = tail call noundef nonnull align 8 dereferenceable(104) ptr @_ZNK6duckdb10unique_ptrINS_6VectorESt14default_deleteIS1_ELb1EEdeEv(ptr noundef nonnull align 8 dereferenceable(8) %24)
  %26 = load ptr, ptr %21, align 8, !tbaa !3
  %27 = getelementptr inbounds nuw i8, ptr %26, i64 32
  %28 = load ptr, ptr %27, align 8
  tail call void %28(ptr noundef nonnull align 8 dereferenceable(65) %21, ptr noundef nonnull align 8 dereferenceable(112) %23, ptr noundef nonnull %1, ptr noundef nonnull align 8 dereferenceable(104) %25, i64 noundef %4)
  br label %29

29:                                               ; preds = %12, %19
  %30 = add nuw i64 %.012, 1
  %31 = load ptr, ptr %8, align 8, !tbaa !517
  %32 = load ptr, ptr %7, align 8, !tbaa !518
  %33 = ptrtoint ptr %31 to i64
  %34 = ptrtoint ptr %32 to i64
  %35 = sub i64 %33, %34
  %36 = ashr exact i64 %35, 3
  %37 = icmp ult i64 %30, %36
  br i1 %37, label %12, label %._crit_edge, !llvm.loop !534
}